; Function Attrs: mustprogress nofree norecurse nosync nounwind willreturn memory(argmem: read) uwtable
define internal zeroext i1 @VULKAN_SupportsSampleCount(ptr noundef readonly captures(none) %0, i32 noundef %1, i32 noundef %2) #10 {
  %.off.i = add i32 %1, -58
  %switch.i = icmp ult i32 %.off.i, 5
  %.in.v = select i1 %switch.i, i64 708, i64 704
  %.in = getelementptr inbounds nuw i8, ptr %0, i64 %.in.v
  %4 = load i32, ptr %.in, align 4
  %5 = zext i32 %2 to i64
  %6 = getelementptr inbounds nuw [4 x i32], ptr @SDLToVK_SampleCount, i64 0, i64 %5
  %7 = load i32, ptr %6, align 4
  %8 = and i32 %7, %4
  %9 = icmp ne i32 %8, 0
  ret i1 %9
}